; Function Attrs: mustprogress uwtable
define internal noundef ptr @"_ZNSt17_Function_handlerIFPKN7rocksdb10ComparatorERKNSt7__cxx1112basic_stringIcSt11char_traitsIcESaIcEEEPSt10unique_ptrIS2_St14default_deleteIS2_EEPS9_EZNS0_L26RegisterBuiltinComparatorsERNS0_13ObjectLibraryESB_E3$_1E9_M_invokeERKSt9_Any_dataSB_OSG_OSH_"(ptr nonnull readnone align 8 captures(none) %0, ptr nonnull readnone align 8 captures(none) %1, ptr nonnull readnone align 8 captures(none) %2, ptr nonnull readnone align 8 captures(none) %3) #1 align 2 personality ptr @__gxx_personality_v0 {
  %5 = load atomic i8, ptr @_ZGVZN7rocksdb25ReverseBytewiseComparatorEvE9rbytewise acquire, align 8
  %6 = icmp eq i8 %5, 0
  br i1 %6, label %7, label %"_ZSt10__invoke_rIPKN7rocksdb10ComparatorERZNS0_L26RegisterBuiltinComparatorsERNS0_13ObjectLibraryERKNSt7__cxx1112basic_stringIcSt11char_traitsIcESaIcEEEE3$_1JSD_PSt10unique_ptrIS2_St14default_deleteIS2_EEPSB_EENSt9enable_ifIX16is_invocable_r_vIT_T0_DpT1_EESN_E4typeEOSO_DpOSP_.exit", !prof !4

7:                                                ; preds = %4
  %8 = tail call i32 @__cxa_guard_acquire(ptr nonnull @_ZGVZN7rocksdb25ReverseBytewiseComparatorEvE9rbytewise) #27
  %.not.i.i.i.i = icmp eq i32 %8, 0
  br i1 %.not.i.i.i.i, label %"_ZSt10__invoke_rIPKN7rocksdb10ComparatorERZNS0_L26RegisterBuiltinComparatorsERNS0_13ObjectLibraryERKNSt7__cxx1112basic_stringIcSt11char_traitsIcESaIcEEEE3$_1JSD_PSt10unique_ptrIS2_St14default_deleteIS2_EEPSB_EENSt9enable_ifIX16is_invocable_r_vIT_T0_DpT1_EESN_E4typeEOSO_DpOSP_.exit", label %9

9:                                                ; preds = %7
  %10 = invoke noalias noundef nonnull dereferenceable(48) ptr @_Znwm(i64 noundef 48) #28
          to label %11 unwind label %15

11:                                               ; preds = %9
  %12 = getelementptr inbounds nuw i8, ptr %10, i64 8
  tail call void @llvm.memset.p0.i64(ptr noundef nonnull align 8 dereferenceable(24) %12, i8 0, i64 24, i1 false)
  %13 = getelementptr inbounds nuw i8, ptr %10, i64 32
  %14 = getelementptr inbounds nuw i8, ptr %10, i64 40
  store i64 0, ptr %14, align 8, !tbaa !5
  store ptr getelementptr inbounds nuw inrange(-16, 256) (i8, ptr @_ZTVN7rocksdb12_GLOBAL__N_129ReverseBytewiseComparatorImplE, i64 16), ptr %10, align 8, !tbaa !19
  store ptr getelementptr inbounds nuw inrange(-16, 24) (i8, ptr @_ZTVN7rocksdb12_GLOBAL__N_129ReverseBytewiseComparatorImplE, i64 288), ptr %13, align 8, !tbaa !19
  store ptr %10, ptr @_ZZN7rocksdb25ReverseBytewiseComparatorEvE9rbytewise, align 8, !tbaa !23
  tail call void @__cxa_guard_release(ptr nonnull @_ZGVZN7rocksdb25ReverseBytewiseComparatorEvE9rbytewise) #27
  br label %"_ZSt10__invoke_rIPKN7rocksdb10ComparatorERZNS0_L26RegisterBuiltinComparatorsERNS0_13ObjectLibraryERKNSt7__cxx1112basic_stringIcSt11char_traitsIcESaIcEEEE3$_1JSD_PSt10unique_ptrIS2_St14default_deleteIS2_EEPSB_EENSt9enable_ifIX16is_invocable_r_vIT_T0_DpT1_EESN_E4typeEOSO_DpOSP_.exit"

15:                                               ; preds = %9
  %16 = landingpad { ptr, i32 }
          cleanup
  tail call void @__cxa_guard_abort(ptr nonnull @_ZGVZN7rocksdb25ReverseBytewiseComparatorEvE9rbytewise) #27
  resume { ptr, i32 } %16

"_ZSt10__invoke_rIPKN7rocksdb10ComparatorERZNS0_L26RegisterBuiltinComparatorsERNS0_13ObjectLibraryERKNSt7__cxx1112basic_stringIcSt11char_traitsIcESaIcEEEE3$_1JSD_PSt10unique_ptrIS2_St14default_deleteIS2_EEPSB_EENSt9enable_ifIX16is_invocable_r_vIT_T0_DpT1_EESN_E4typeEOSO_DpOSP_.exit": ; preds = %4, %7, %11
  %17 = load ptr, ptr @_ZZN7rocksdb25ReverseBytewiseComparatorEvE9rbytewise, align 8, !tbaa !23
  ret ptr %17
}